; Function Attrs: mustprogress nounwind uwtable
define hidden void @_ZN6recfun4decl6pluginD2Ev(ptr nocapture noundef nonnull align 8 dereferenceable(81) %this) unnamed_addr #4 align 2 personality ptr @__gxx_personality_v0 {
entry:
  store ptr getelementptr inbounds ({ [23 x ptr] }, ptr @_ZTVN6recfun4decl6pluginE, i64 0, i32 0, i64 2), ptr %this, align 8
  invoke void @_ZN6recfun4decl6plugin8finalizeEv(ptr noundef nonnull align 8 dereferenceable(81) %this)
          to label %invoke.cont unwind label %terminate.lpad

invoke.cont:                                      ; preds = %entry
  %m_case_defs = getelementptr inbounds i8, ptr %this, i64 56
  %0 = load ptr, ptr %m_case_defs, align 8
  %cmp.i.i.i.i = icmp eq ptr %0, null
  br i1 %cmp.i.i.i.i, label %_ZN7obj_mapI9func_declPN6recfun8case_defEED2Ev.exit, label %for.cond.preheader.i.i.i.i

for.cond.preheader.i.i.i.i:                       ; preds = %invoke.cont
  invoke void @_ZN6memory10deallocateEPv(ptr noundef nonnull %0)
          to label %_ZN7obj_mapI9func_declPN6recfun8case_defEED2Ev.exit unwind label %terminate.lpad.i.i

terminate.lpad.i.i:                               ; preds = %for.cond.preheader.i.i.i.i
  %1 = landingpad { ptr, i32 }
          catch ptr null
  %2 = extractvalue { ptr, i32 } %1, 0
  tail call void @__clang_call_terminate(ptr %2) #22
  unreachable

_ZN7obj_mapI9func_declPN6recfun8case_defEED2Ev.exit: ; preds = %invoke.cont, %for.cond.preheader.i.i.i.i
  store ptr null, ptr %m_case_defs, align 8
  %m_defs = getelementptr inbounds i8, ptr %this, i64 32
  %3 = load ptr, ptr %m_defs, align 8
  %cmp.i.i.i.i1 = icmp eq ptr %3, null
  br i1 %cmp.i.i.i.i1, label %_ZN7obj_mapI9func_declPN6recfun3defEED2Ev.exit, label %for.cond.preheader.i.i.i.i2

for.cond.preheader.i.i.i.i2:                      ; preds = %_ZN7obj_mapI9func_declPN6recfun8case_defEED2Ev.exit
  invoke void @_ZN6memory10deallocateEPv(ptr noundef nonnull %3)
          to label %_ZN7obj_mapI9func_declPN6recfun3defEED2Ev.exit unwind label %terminate.lpad.i.i3

terminate.lpad.i.i3:                              ; preds = %for.cond.preheader.i.i.i.i2
  %4 = landingpad { ptr, i32 }
          catch ptr null
  %5 = extractvalue { ptr, i32 } %4, 0
  tail call void @__clang_call_terminate(ptr %5) #22
  unreachable

_ZN7obj_mapI9func_declPN6recfun3defEED2Ev.exit:   ; preds = %_ZN7obj_mapI9func_declPN6recfun8case_defEED2Ev.exit, %for.cond.preheader.i.i.i.i2
  store ptr null, ptr %m_defs, align 8
  %m_util = getelementptr inbounds i8, ptr %this, i64 24
  %6 = load ptr, ptr %m_util, align 8
  %cmp.i.i = icmp eq ptr %6, null
  br i1 %cmp.i.i, label %_ZN10scoped_ptrIN6recfun4utilEED2Ev.exit, label %if.end.i.i

if.end.i.i:                                       ; preds = %_ZN7obj_mapI9func_declPN6recfun3defEED2Ev.exit
  invoke void @_ZN6memory10deallocateEPv(ptr noundef nonnull %6)
          to label %_ZN10scoped_ptrIN6recfun4utilEED2Ev.exit unwind label %terminate.lpad.i

terminate.lpad.i:                                 ; preds = %if.end.i.i
  %7 = landingpad { ptr, i32 }
          catch ptr null
  %8 = extractvalue { ptr, i32 } %7, 0
  tail call void @__clang_call_terminate(ptr %8) #22
  unreachable

_ZN10scoped_ptrIN6recfun4utilEED2Ev.exit:         ; preds = %_ZN7obj_mapI9func_declPN6recfun3defEED2Ev.exit, %if.end.i.i
  ret void

terminate.lpad:                                   ; preds = %entry
  %9 = landingpad { ptr, i32 }
          catch ptr null
  %10 = extractvalue { ptr, i32 } %9, 0
  tail call void @__clang_call_terminate(ptr %10) #22
  unreachable
}